Certificate:
    Data:
        Version: 3 (0x2)
        Serial Number: 6 (0x6)
        Signature Algorithm: sha512WithRSAEncryption
        Issuer: C=SG, ST=Singapore, L=Singapore, O=WUSHILIN.NET, OU=IT Team, CN=540CA
        Validity
            Not Before: Oct  2 14:32:14 2023 GMT
            Not After : Oct  1 14:32:14 2024 GMT
        Subject: C=SG, ST=Singapore, L=Singapore, O=Test, OU=Test, CN=portforwarder
        Subject Public Key Info:
            Public Key Algorithm: rsaEncryption
                Public-Key: (4096 bit)
                Modulus:
                    00:b5:dc:90:32:09:f2:48:53:77:13:ca:68:bd:e8:
                    f5:c1:59:5e:e8:54:6d:cb:cb:77:c4:dc:94:74:ba:
                    29:ae:14:a7:53:b4:f4:dd:57:29:2e:78:3e:74:a8:
                    49:33:36:1d:d2:ce:06:c4:00:c4:a0:92:42:34:d1:
                    ac:5e:ed:f8:19:d1:a9:0a:d3:29:35:e1:ec:18:ac:
                    5e:a2:63:17:a4:03:69:98:80:45:6e:c3:62:71:fe:
                    f7:c3:d3:e4:64:73:6a:36:5b:1e:f5:6f:82:45:12:
                    3e:92:ce:0b:d8:ca:41:d8:53:43:8c:32:d9:b7:60:
                    4a:3e:57:02:b6:a0:5f:8a:ea:46:10:91:91:79:43:
                    dd:0a:92:64:12:88:c7:9c:2c:4f:98:87:67:ef:17:
                    6e:f8:ab:dc:a2:0b:8e:c9:a6:5a:8d:01:09:02:24:
                    f2:76:a2:8d:8e:7e:19:e4:ac:58:88:04:7e:b4:06:
                    91:4a:e0:e3:5e:8f:0c:25:a3:35:5b:8a:54:f7:e0:
                    e0:8f:dc:95:c1:80:39:20:34:df:63:1a:ac:6c:0b:
                    2f:c6:6f:43:12:f4:41:a3:7b:df:e8:e8:1a:4e:2b:
                    32:7f:81:b6:15:05:2c:a2:82:0c:6e:c0:0e:3f:f9:
                    d6:b0:ff:62:10:8b:c3:95:c4:45:b8:db:06:ff:5f:
                    8f:27:90:50:1b:b0:33:2a:cd:aa:2a:f6:91:2d:9e:
                    15:41:52:26:8b:5b:d9:39:88:d3:f4:9e:9a:4b:d4:
                    23:58:8c:15:cb:bb:f2:d2:b6:cf:a4:fd:8c:29:5b:
                    50:cf:93:d8:29:b6:ee:64:b8:c5:3b:22:91:51:f1:
                    54:f7:62:99:fc:d7:e1:58:8f:18:a3:6a:a4:7c:bc:
                    ac:cb:cd:45:89:df:94:66:c0:f8:09:e6:89:7d:96:
                    4b:29:27:44:db:43:88:e4:d8:b1:ba:b7:93:e7:ba:
                    0c:5a:f2:a0:60:e9:9a:c4:a4:ec:dc:b7:f0:48:e2:
                    c4:dc:f6:41:38:52:d8:37:74:86:21:b9:be:94:fa:
                    5c:19:7b:8b:6a:d0:0b:12:9b:7e:b2:23:db:28:68:
                    ec:54:18:6a:64:6e:bb:5f:a1:c8:f5:0f:da:d0:ee:
                    7d:fa:33:17:1f:98:9e:65:cc:81:64:76:46:ac:22:
                    e1:57:47:10:59:29:1f:51:59:83:df:d8:63:62:cf:
                    9b:6a:f9:c8:7c:6d:f0:ae:3c:33:93:b9:6a:36:d6:
                    a0:37:38:42:e9:16:31:34:05:13:5c:0c:1f:ad:de:
                    95:82:10:8e:7d:f9:58:65:bc:66:f1:12:40:77:14:
                    6e:9a:d6:0d:7f:91:7f:ba:ae:40:c9:d1:de:65:36:
                    44:02:89
                Exponent: 65537 (0x10001)
        X509v3 extensions:
            X509v3 Subject Key Identifier: 
                E2:F3:9C:D6:7B:FA:12:A5:61:D6:17:9C:9D:E6:72:47:21:00:07:6B
            X509v3 Authority Key Identifier: 
                BF:37:9F:A8:CE:D0:9E:F3:86:33:65:61:21:E5:79:3B:47:84:A5:A3
            X509v3 Basic Constraints: 
                CA:FALSE
            X509v3 Key Usage: 
                Digital Signature, Non Repudiation, Key Encipherment
            X509v3 Extended Key Usage: 
                TLS Web Client Authentication, E-mail Protection, TLS Web Server Authentication
            X509v3 Subject Alternative Name: 
                DNS:portforwarder, DNS:localhost, IP Address:192.168.44.113, IP Address:127.0.0.1
            Netscape Comment: 
                OpenSSL Generated Certificate
    Signature Algorithm: sha512WithRSAEncryption
    Signature Value:
        4f:d2:9b:37:ba:cb:00:c0:88:4a:a4:06:13:05:04:ed:f5:aa:
        71:57:79:26:57:ef:31:32:0c:dd:76:70:66:18:6d:ac:46:7e:
        38:87:70:8c:02:29:88:3b:a0:43:ea:01:b9:c5:f3:a0:47:e3:
        f3:8e:d2:a4:8c:63:75:8a:08:da:66:d0:66:02:06:61:ea:38:
        ac:8f:15:e4:8e:b8:63:12:49:93:b2:40:8c:d1:d7:de:a4:52:
        6b:bc:30:9c:98:d1:46:3b:a9:41:8b:b0:e4:77:9f:36:64:9b:
        49:88:4c:5b:05:58:af:9d:94:95:06:c6:8e:80:9e:b5:d3:3c:
        3b:5b:05:db:af:aa:58:f2:40:45:80:a3:63:ac:29:f6:fb:e7:
        4f:61:ef:ac:65:a0:0e:dc:9d:a9:91:cb:e8:17:c4:70:45:f7:
        74:f0:34:f0:f0:1e:0e:16:47:39:b3:3f:9e:e4:d8:4a:3c:e7:
        13:05:0a:e8:29:05:4b:68:36:db:a7:3d:2f:1f:8a:de:c8:1f:
        68:99:0d:57:31:1b:51:ff:ff:b7:fd:8c:f6:af:7d:04:b5:22:
        6d:36:46:7d:12:a8:c0:c6:a6:d6:42:86:82:3a:fb:18:2d:8d:
        31:5d:af:9c:d5:a3:28:d3:c3:16:e5:4e:9c:cf:04:af:5a:b4:
        10:d0:b9:ed:0a:e4:50:4a:2d:41:a8:e3:48:e2:08:71:a6:70:
        f4:5e:2a:ce:6a:4a:25:16:ed:9b:4a:3e:8b:91:27:37:0b:75:
        45:1f:a4:f9:30:a1:d0:cb:a9:bd:d3:c3:4c:67:69:e9:80:5b:
        ef:6a:f3:cd:17:78:e3:da:7c:db:2e:22:e0:a1:e5:26:bf:6f:
        92:81:bd:d2:1c:24:4b:05:c0:09:30:58:25:61:72:71:77:16:
        b0:45:96:83:cc:2f:dd:2c:2d:be:91:3f:31:6b:c5:22:ca:36:
        b4:5c:cd:4b:8a:34:7b:5b:23:1b:d3:9a:de:ec:2d:5b:12:eb:
        9d:ea:37:8c:d0:ec:cc:16:57:3c:7a:ab:9a:c6:4a:75:1a:32:
        a1:2b:dd:5e:ad:bc:5d:9c:da:00:81:4e:d5:94:0b:c1:cc:80:
        ee:76:eb:54:a3:44:5e:11:69:9c:01:57:bc:1a:fa:99:fd:d0:
        d0:85:e9:b4:60:c1:f8:d9:fc:7f:3d:d0:5b:e9:25:56:37:27:
        a9:c5:06:86:d1:f4:12:82:75:60:94:d3:bf:22:7a:24:56:5e:
        f5:d8:2c:22:2f:f9:00:df:98:e8:6e:19:f8:79:01:d4:e8:80:
        3a:20:52:e5:c9:14:8a:fd:1c:67:74:9b:c2:e2:0b:60:99:a2:
        85:30:b5:a3:97:f1:56:04:5a:11:1c:41:5b:6a:10:d9:28:72:
        b6:0c:cc:ab:39:de:78:76:52:87:8d:62:e5:1e:7a:f1:54:03:
        24:79:51:8a:0e:8f:3b:99:44:92:a5:e2:93:85:64:74:d5:3c:
        10:22:cf:74:eb:75:80:15:fe:d2:57:50:df:c0:b0:29:5d:69:
        58:64:5d:5f:3a:44:f4:42:5c:e9:67:14:2a:bb:22:27:70:c0:
        69:f8:4c:61:2c:64:5b:91:b4:98:29:31:f2:9c:89:cf:fb:94:
        60:2f:1d:c1:bf:86:ff:a6:97:d1:2e:b5:55:11:5d:07:6c:d1:
        1c:60:a5:02:18:25:43:6a:aa:0d:45:8e:e3:7d:7e:75:c1:4a:
        fb:b2:27:f5:3d:ee:6d:d3:94:cc:e8:66:bd:76:08:df:f2:5e:
        c1:b7:8a:00:ba:88:b7:6a:6e:06:32:7b:c7:1b:61:a3:bc:0e:
        d9:35:79:69:69:cd:2b:8b:d3:28:67:fa:69:b9:7a:57:8c:43:
        63:7d:34:d7:62:2e:03:70:54:13:3d:7f:75:9c:16:62:7a:e9:
        67:bc:78:97:65:ab:4f:62:b8:ee:d9:56:97:20:dd:0d:6a:23:
        4a:96:a4:fd:cf:52:d6:84:9e:d6:ca:a8:df:6c:2a:7e:81:90:
        75:1e:03:9f:27:48:2a:80:39:a9:14:a5:15:7e:80:5b:76:c6:
        ec:6b:6d:5e:4e:12:c5:29:f3:7c:78:a0:30:ee:84:39:31:df:
        0e:a2:9a:9b:cf:18:2c:ef:d3:e5:0a:0c:82:8a:de:e3:48:97:
        14:9d:40:f9:da:0e:bf:ac:f1:dd:69:7b:2b:fd:33:44:ff:d6:
        94:46:32:c6:6d:a0:21:05:53:74:51:fa:55:f8:a9:e6:ba:24:
        2d:7a:35:7f:63:c4:50:5b:92:d1:08:69:1c:64:94:b7:fe:ef:
        b7:4f:05:a1:7f:94:15:02:28:57:f6:46:95:9e:36:06:cb:9b:
        53:ad:6e:1f:93:9d:d4:ac:a9:8e:40:e4:6c:59:61:0c:a7:e4:
        d2:bb:d2:b8:9a:44:11:39:e4:a7:45:37:cb:5c:e4:27:d6:aa:
        2d:84:ad:bd:de:fa:fa:88:e0:e9:d2:f7:c0:2d:38:49:d1:7a:
        92:80:ce:14:81:a3:2b:8b:03:89:95:a6:3b:35:b0:43:3c:8d:
        b1:37:06:47:6c:28:cb:32:d9:b8:7b:55:a1:1a:98:16:dd:56:
        67:2e:c8:b3:7f:09:e5:48:e2:70:c5:db:62:d9:60:7f:54:5b:
        45:e4:a5:21:b5:70:84:ba:45:26:f5:9e:39:05:69:6b:c7:fa:
        4d:e3:b5:a8:b4:25:a4:1d:63:83:c2:fb:4f:74:ea:cf
-----BEGIN CERTIFICATE-----
MIIIODCCBCCgAwIBAgIBBjANBgkqhkiG9w0BAQ0FADBuMQswCQYDVQQGEwJTRzES
MBAGA1UECAwJU2luZ2Fwb3JlMRIwEAYDVQQHDAlTaW5nYXBvcmUxFTATBgNVBAoM
DFdVU0hJTElOLk5FVDEQMA4GA1UECwwHSVQgVGVhbTEOMAwGA1UEAwwFNTQwQ0Ew
HhcNMjMxMDAyMTQzMjE0WhcNMjQxMDAxMTQzMjE0WjBrMQswCQYDVQQGEwJTRzES
MBAGA1UECAwJU2luZ2Fwb3JlMRIwEAYDVQQHDAlTaW5nYXBvcmUxDTALBgNVBAoM
BFRlc3QxDTALBgNVBAsMBFRlc3QxFjAUBgNVBAMMDXBvcnRmb3J3YXJkZXIwggIi
MA0GCSqGSIb3DQEBAQUAA4ICDwAwggIKAoICAQC13JAyCfJIU3cTymi96PXBWV7o
VG3Ly3fE3JR0uimuFKdTtPTdVykueD50qEkzNh3SzgbEAMSgkkI00axe7fgZ0akK
0yk14ewYrF6iYxekA2mYgEVuw2Jx/vfD0+Rkc2o2Wx71b4JFEj6SzgvYykHYU0OM
Mtm3YEo+VwK2oF+K6kYQkZF5Q90KkmQSiMecLE+Yh2fvF274q9yiC47JplqNAQkC
JPJ2oo2OfhnkrFiIBH60BpFK4ONejwwlozVbilT34OCP3JXBgDkgNN9jGqxsCy/G
b0MS9EGje9/o6BpOKzJ/gbYVBSyiggxuwA4/+daw/2IQi8OVxEW42wb/X48nkFAb
sDMqzaoq9pEtnhVBUiaLW9k5iNP0nppL1CNYjBXLu/LSts+k/YwpW1DPk9gptu5k
uMU7IpFR8VT3Ypn81+FYjxijaqR8vKzLzUWJ35RmwPgJ5ol9lkspJ0TbQ4jk2LG6
t5Pnugxa8qBg6ZrEpOzct/BI4sTc9kE4Utg3dIYhub6U+lwZe4tq0AsSm36yI9so
aOxUGGpkbrtfocj1D9rQ7n36MxcfmJ5lzIFkdkasIuFXRxBZKR9RWYPf2GNiz5tq
+ch8bfCuPDOTuWo21qA3OELpFjE0BRNcDB+t3pWCEI59+VhlvGbxEkB3FG6a1g1/
kX+6rkDJ0d5lNkQCiQIDAQABo4HjMIHgMB0GA1UdDgQWBBTi85zWe/oSpWHWF5yd
5nJHIQAHazAfBgNVHSMEGDAWgBS/N5+oztCe84YzZWEh5Xk7R4SlozAJBgNVHRME
AjAAMAsGA1UdDwQEAwIF4DAnBgNVHSUEIDAeBggrBgEFBQcDAgYIKwYBBQUHAwQG
CCsGAQUFBwMBMC8GA1UdEQQoMCaCDXBvcnRmb3J3YXJkZXKCCWxvY2FsaG9zdIcE
wKgscYcEfwAAATAsBglghkgBhvhCAQ0EHxYdT3BlblNTTCBHZW5lcmF0ZWQgQ2Vy
dGlmaWNhdGUwDQYJKoZIhvcNAQENBQADggQBAE/Smze6ywDAiEqkBhMFBO31qnFX
eSZX7zEyDN12cGYYbaxGfjiHcIwCKYg7oEPqAbnF86BH4/OO0qSMY3WKCNpm0GYC
BmHqOKyPFeSOuGMSSZOyQIzR196kUmu8MJyY0UY7qUGLsOR3nzZkm0mITFsFWK+d
lJUGxo6AnrXTPDtbBduvqljyQEWAo2OsKfb7509h76xloA7cnamRy+gXxHBF93Tw
NPDwHg4WRzmzP57k2Eo85xMFCugpBUtoNtunPS8fit7IH2iZDVcxG1H//7f9jPav
fQS1Im02Rn0SqMDGptZChoI6+xgtjTFdr5zVoyjTwxblTpzPBK9atBDQue0K5FBK
LUGo40jiCHGmcPReKs5qSiUW7ZtKPouRJzcLdUUfpPkwodDLqb3Tw0xnaemAW+9q
880XeOPafNsuIuCh5Sa/b5KBvdIcJEsFwAkwWCVhcnF3FrBFloPML90sLb6RPzFr
xSLKNrRczUuKNHtbIxvTmt7sLVsS653qN4zQ7MwWVzx6q5rGSnUaMqEr3V6tvF2c
2gCBTtWUC8HMgO5261SjRF4RaZwBV7wa+pn90NCF6bRgwfjZ/H890FvpJVY3J6nF
BobR9BKCdWCU078ieiRWXvXYLCIv+QDfmOhuGfh5AdTogDogUuXJFIr9HGd0m8Li
C2CZooUwtaOX8VYEWhEcQVtqENkocrYMzKs53nh2UoeNYuUeevFUAyR5UYoOjzuZ
RJKl4pOFZHTVPBAiz3TrdYAV/tJXUN/AsCldaVhkXV86RPRCXOlnFCq7IidwwGn4
TGEsZFuRtJgpMfKcic/7lGAvHcG/hv+ml9EutVURXQds0RxgpQIYJUNqqg1FjuN9
fnXBSvuyJ/U97m3TlMzoZr12CN/yXsG3igC6iLdqbgYye8cbYaO8Dtk1eWlpzSuL
0yhn+mm5eleMQ2N9NNdiLgNwVBM9f3WcFmJ66We8eJdlq09iuO7ZVpcg3Q1qI0qW
pP3PUtaEntbKqN9sKn6BkHUeA58nSCqAOakUpRV+gFt2xuxrbV5OEsUp83x4oDDu
hDkx3w6impvPGCzv0+UKDIKK3uNIlxSdQPnaDr+s8d1peyv9M0T/1pRGMsZtoCEF
U3RR+lX4qea6JC16NX9jxFBbktEIaRxklLf+77dPBaF/lBUCKFf2RpWeNgbLm1Ot
bh+TndSsqY5A5GxZYQyn5NK70riaRBE55KdFN8tc5CfWqi2Erb3e+vqI4OnS98At
OEnRepKAzhSBoyuLA4mVpjs1sEM8jbE3BkdsKMsy2bh7VaEamBbdVmcuyLN/CeVI
4nDF22LZYH9UW0XkpSG1cIS6RSb1njkFaWvH+k3jtai0JaQdY4PC+0906s8=
-----END CERTIFICATE-----
